target datalayout = "e-m:e-p270:32:32-p271:32:32-p272:64:64-i64:64-i128:128-f80:128-n8:16:32:64-S128"
target triple = "x86_64-pc-linux-gnu"

%class.ZGeneration = type { ptr, i8, ptr, ptr, %class.ZForwardingTable, %class.ZWorkers, [24 x i8], %class.ZMark, %class.ZRelocate, %class.ZRelocationSet, i64, i64, i64, i32, i32, %class.ZStatHeap, %class.ZStatCycle, %class.ZStatWorkers, %class.ZStatMark, %class.ZStatRelocation, ptr }
%class.ZForwardingTable = type { %class.ZGranuleMap }
%class.ZGranuleMap = type { i64, ptr }
%class.ZWorkers = type { %class.WorkerThreads, ptr, %class.ZLock, i32, i8, ptr }
%class.WorkerThreads = type { ptr, ptr, ptr, i32, i32, i32, %class.WorkerTaskDispatcher }
%class.WorkerTaskDispatcher = type { ptr, i32, i32, %class.Semaphore, %class.Semaphore }
%class.Semaphore = type { %class.PosixSemaphore }
%class.PosixSemaphore = type { %union.sem_t }
%union.sem_t = type { i64, [24 x i8] }
%class.ZLock = type { %class.PlatformMutex }
%class.PlatformMutex = type { %union.pthread_mutex_t }
%union.pthread_mutex_t = type { %struct.__pthread_mutex_s }
%struct.__pthread_mutex_s = type { i32, i32, i32, i32, i32, i16, i16, %struct.__pthread_internal_list }
%struct.__pthread_internal_list = type { ptr, ptr }
%class.ZMark = type <{ ptr, ptr, [48 x i8], %class.ZMarkStackAllocator, %class.ZMarkStripeSet, %class.ZMarkTerminate, i64, i64, i64, i64, i64, i64, i32, [36 x i8] }>
%class.ZMarkStackAllocator = type <{ [64 x i8], %class.ZMarkStackSpace, [56 x i8], %class.ZStackList, i8, [63 x i8] }>
%class.ZMarkStackSpace = type <{ %class.ZLock, i64, i64, i64, i8, [7 x i8] }>
%class.ZStackList = type { i64, ptr, [48 x i8] }
%class.ZMarkStripeSet = type { i64, [56 x i8], [16 x %class.ZMarkStripe] }
%class.ZMarkStripe = type { %class.ZStackList.2, %class.ZStackList.2 }
%class.ZStackList.2 = type { i64, ptr, [48 x i8] }
%class.ZMarkTerminate = type { i32, i32, i32, i8, %class.ZConditionLock }
%class.ZConditionLock = type { %class.PlatformMonitor }
%class.PlatformMonitor = type { %class.PlatformMutex, %union.pthread_cond_t }
%union.pthread_cond_t = type { %struct.__pthread_cond_s }
%struct.__pthread_cond_s = type { %union.__atomic_wide_counter, %union.__atomic_wide_counter, [2 x i32], [2 x i32], i32, i32, [2 x i32] }
%union.__atomic_wide_counter = type { i64 }
%class.ZRelocate = type { ptr, %class.ZRelocateQueue }
%class.ZRelocateQueue = type { %class.ZConditionLock, %class.GrowableArrayCHeap, i32, i32, i8, i8, i32 }
%class.GrowableArrayCHeap = type { %class.GrowableArrayWithAllocator }
%class.GrowableArrayWithAllocator = type { %class.GrowableArrayView }
%class.GrowableArrayView = type { %class.GrowableArrayBase, ptr }
%class.GrowableArrayBase = type { i32, i32 }
%class.ZRelocationSet = type { ptr, %class.ZForwardingAllocator, ptr, i64, %class.ZLock, %class.GrowableArrayCHeap.4, %class.GrowableArrayCHeap.4 }
%class.ZForwardingAllocator = type { ptr, ptr, ptr }
%class.GrowableArrayCHeap.4 = type { %class.GrowableArrayWithAllocator.5 }
%class.GrowableArrayWithAllocator.5 = type { %class.GrowableArrayView.6 }
%class.GrowableArrayView.6 = type { %class.GrowableArrayBase, ptr }
%class.ZStatHeap = type { %class.ZLock, %"struct.ZStatHeap::ZAtGenerationCollectionStart", %"struct.ZStatHeap::ZAtMarkStart", %"struct.ZStatHeap::ZAtMarkEnd", %"struct.ZStatHeap::ZAtRelocateStart", %"struct.ZStatHeap::ZAtRelocateEnd", %class.NumberSeq }
%"struct.ZStatHeap::ZAtGenerationCollectionStart" = type { i64, i64, i64, i64, i64 }
%"struct.ZStatHeap::ZAtMarkStart" = type { i64, i64, i64, i64, i64, i64 }
%"struct.ZStatHeap::ZAtMarkEnd" = type { i64, i64, i64, i64, i64, i64, i64, i64 }
%"struct.ZStatHeap::ZAtRelocateStart" = type { i64, i64, i64, i64, i64, i64, i64, i64, i64, i64, i64 }
%"struct.ZStatHeap::ZAtRelocateEnd" = type { i64, i64, i64, i64, i64, i64, i64, i64, i64, i64, i64, i64, i64, i64, i64, i64, i64 }
%class.NumberSeq = type { %class.AbsSeq, double, double }
%class.AbsSeq = type { ptr, i32, double, double, double, double, double }
%class.ZStatCycle = type { %class.ZLock, i64, %class.TimeInstant, %class.TimeInstant, %class.NumberSeq, %class.NumberSeq, %class.NumberSeq, %class.NumberSeq, double }
%class.TimeInstant = type { %class.CompositeCounterRepresentation }
%class.CompositeCounterRepresentation = type { %class.Representation }
%class.Representation = type { %class.PairRep }
%class.PairRep = type { i64, i64 }
%class.ZStatWorkers = type { %class.ZLock, i32, %class.TimeInstant, %class.TimeInterval, %class.TimeInterval }
%class.TimeInterval = type { %class.CompositeCounterRepresentation }
%class.ZStatMark = type { i64, i64, i64, i64, i64, i64 }
%class.ZStatRelocation = type { %class.ZRelocationSetSelectorStats, i64, i64, i64, i64, i64 }
%class.ZRelocationSetSelectorStats = type { [16 x %class.ZRelocationSetSelectorGroupStats], [16 x %class.ZRelocationSetSelectorGroupStats], [16 x %class.ZRelocationSetSelectorGroupStats], i64 }
%class.ZRelocationSetSelectorGroupStats = type { i64, i64, i64, i64, i64, i64 }
%class.ZPageAllocatorStats = type { i64, i64, i64, i64, i64, i64, i64, i64, i64, i64, i64, i64 }

@__const._ZN11ZGeneration16log_phase_switchENS_5PhaseES0_.str = private unnamed_addr constant [6 x ptr] [ptr @.str.56, ptr @.str.57, ptr @.str.58, ptr @.str.59, ptr @.str.60, ptr @.str.61], align 16
@.str.62 = private unnamed_addr constant [10 x i8] c"%-21s %4u\00", align 1

; Function Attrs: mustprogress nounwind uwtable
define linkonce_odr hidden noundef i32 @_ZNK11ZGeneration6seqnumEv(ptr noundef nonnull align 64 dereferenceable(6592) %0) #1 comdat align 2 {
  %2 = alloca ptr, align 8
  store ptr %0, ptr %2, align 8
  %3 = load ptr, ptr %2, align 8
  %4 = getelementptr inbounds %class.ZGeneration, ptr %3, i32 0, i32 14
  %5 = load i32, ptr %4, align 4
  ret i32 %5
}

; Function Attrs: mustprogress nounwind uwtable
define linkonce_odr hidden noundef zeroext i1 @_ZNK11ZGeneration6is_oldEv(ptr noundef nonnull align 64 dereferenceable(6592) %0) #1 comdat align 2 {
  %2 = alloca ptr, align 8
  store ptr %0, ptr %2, align 8
  %3 = load ptr, ptr %2, align 8
  %4 = getelementptr inbounds %class.ZGeneration, ptr %3, i32 0, i32 1
  %5 = load i8, ptr %4, align 8
  %6 = icmp eq i8 %5, 1
  ret i1 %6
}

; Function Attrs: mustprogress nounwind uwtable
define hidden void @_ZN11ZGeneration16log_phase_switchENS_5PhaseES0_(ptr noundef nonnull align 64 dereferenceable(6592) %0, i32 noundef %1, i32 noundef %2) #1 align 2 {
  %4 = alloca ptr, align 8
  %5 = alloca i32, align 4
  %6 = alloca i32, align 4
  %7 = alloca [6 x ptr], align 16
  %8 = alloca i64, align 8
  store ptr %0, ptr %4, align 8
  store i32 %1, ptr %5, align 4
  store i32 %2, ptr %6, align 4
  %9 = load ptr, ptr %4, align 8
  call void @llvm.memcpy.p0.p0.i64(ptr align 16 %7, ptr align 16 @__const._ZN11ZGeneration16log_phase_switchENS_5PhaseES0_.str, i64 48, i1 false)
  store i64 0, ptr %8, align 8
  %10 = call noundef zeroext i1 @_ZNK11ZGeneration6is_oldEv(ptr noundef nonnull align 64 dereferenceable(6592) %9)
  br i1 %10, label %11, label %14

11:                                               ; preds = %3
  %12 = load i64, ptr %8, align 8
  %13 = add i64 %12, 3
  store i64 %13, ptr %8, align 8
  br label %14

14:                                               ; preds = %11, %3
  %15 = load i32, ptr %6, align 4
  %16 = icmp eq i32 %15, 2
  br i1 %16, label %17, label %20

17:                                               ; preds = %14
  %18 = load i64, ptr %8, align 8
  %19 = add i64 %18, 2
  store i64 %19, ptr %8, align 8
  br label %20

20:                                               ; preds = %17, %14
  %21 = load i32, ptr %5, align 4
  %22 = icmp eq i32 %21, 0
  br i1 %22, label %23, label %29

23:                                               ; preds = %20
  %24 = load i32, ptr %6, align 4
  %25 = icmp eq i32 %24, 1
  br i1 %25, label %26, label %29

26:                                               ; preds = %23
  %27 = load i64, ptr %8, align 8
  %28 = add i64 %27, 1
  store i64 %28, ptr %8, align 8
  br label %29

29:                                               ; preds = %26, %23, %20
  %30 = load i64, ptr %8, align 8
  %31 = getelementptr inbounds [6 x ptr], ptr %7, i64 0, i64 %30
  %32 = load ptr, ptr %31, align 8
  %33 = call noundef i32 @_ZNK11ZGeneration6seqnumEv(ptr noundef nonnull align 64 dereferenceable(6592) %9)
  call void (ptr, ...) @_ZN6Events20log_zgc_phase_switchEPKcz(ptr noundef @.str.62, ptr noundef %32, i32 noundef %33)
  ret void
}

; Function Attrs: mustprogress nounwind uwtable
define linkonce_odr hidden noundef ptr @_ZN11ZGeneration9stat_heapEv(ptr noundef nonnull align 64 dereferenceable(6592) %0) #1 comdat align 2 {
  %2 = alloca ptr, align 8
  store ptr %0, ptr %2, align 8
  %3 = load ptr, ptr %2, align 8
  %4 = getelementptr inbounds %class.ZGeneration, ptr %3, i32 0, i32 15
  ret ptr %4
}

; Function Attrs: mustprogress nounwind uwtable
define hidden void @_ZN11ZGeneration9set_phaseENS_5PhaseE(ptr noundef nonnull align 64 dereferenceable(6592) %0, i32 noundef %1) #1 align 2 {
  %3 = alloca ptr, align 8
  %4 = alloca i32, align 4
  store ptr %0, ptr %3, align 8
  store i32 %1, ptr %4, align 4
  %5 = load ptr, ptr %3, align 8
  %6 = getelementptr inbounds %class.ZGeneration, ptr %5, i32 0, i32 13
  %7 = load i32, ptr %6, align 16
  %8 = load i32, ptr %4, align 4
  call void @_ZN11ZGeneration16log_phase_switchENS_5PhaseES0_(ptr noundef nonnull align 64 dereferenceable(6592) %5, i32 noundef %7, i32 noundef %8)
  %9 = load i32, ptr %4, align 4
  %10 = getelementptr inbounds %class.ZGeneration, ptr %5, i32 0, i32 13
  store i32 %9, ptr %10, align 16
  ret void
}

; Function Attrs: mustprogress nounwind uwtable
define hidden void @_ZN16ZGenerationYoung19flip_relocate_startEv(ptr noundef nonnull align 64 dereferenceable(6720) %0) #1 align 2 {
  %2 = alloca ptr, align 8
  store ptr %0, ptr %2, align 8
  call void @_ZN16ZGlobalsPointers25flip_young_relocate_startEv()
  %3 = call noundef ptr @_ZN11ZBarrierSet9assemblerEv()
  call void @_ZN20ZBarrierSetAssembler14patch_barriersEv(ptr noundef nonnull align 8 dereferenceable(56) %3)
  call void @_ZN7ZVerify13on_color_flipEv()
  ret void
}

; Function Attrs: mustprogress nounwind uwtable
define hidden void @_ZN16ZGenerationYoung14relocate_startEv(ptr noundef nonnull align 64 dereferenceable(6720) %0) #1 align 2 {
  %2 = alloca ptr, align 8
  %3 = alloca %class.ZPageAllocatorStats, align 8
  store ptr %0, ptr %2, align 8
  %4 = load ptr, ptr %2, align 8
  call void @_ZN16ZGenerationYoung19flip_relocate_startEv(ptr noundef nonnull align 64 dereferenceable(6720) %4)
  call void @_ZN11ZGeneration9set_phaseENS_5PhaseE(ptr noundef nonnull align 64 dereferenceable(6592) %4, i32 noundef 2)
  %5 = call noundef ptr @_ZN11ZGeneration9stat_heapEv(ptr noundef nonnull align 64 dereferenceable(6592) %4)
  %6 = getelementptr inbounds %class.ZGeneration, ptr %4, i32 0, i32 2
  %7 = load ptr, ptr %6, align 16
  call void @_ZNK14ZPageAllocator5statsEP11ZGeneration(ptr dead_on_unwind writable sret(%class.ZPageAllocatorStats) align 8 %3, ptr noundef nonnull align 8 dereferenceable(609) %7, ptr noundef %4)
  call void @_ZN9ZStatHeap17at_relocate_startERK19ZPageAllocatorStats(ptr noundef nonnull align 8 dereferenceable(488) %5, ptr noundef nonnull align 8 dereferenceable(96) %3)
  %8 = getelementptr inbounds %class.ZGeneration, ptr %4, i32 0, i32 8
  call void @_ZN9ZRelocate5startEv(ptr noundef nonnull align 8 dereferenceable(128) %8)
  ret void
}