; Function Attrs: mustprogress nounwind uwtable
define hidden void @_ZN16ZGenerationYoung14relocate_startEv(ptr noundef nonnull align 64 dereferenceable(6720) %0) local_unnamed_addr #0 align 2 {
  %2 = alloca %class.ZPageAllocatorStats, align 8
  tail call void @_ZN16ZGlobalsPointers25flip_young_relocate_startEv() #18
  %3 = tail call noundef ptr @_ZN11ZBarrierSet9assemblerEv() #18
  tail call void @_ZN20ZBarrierSetAssembler14patch_barriersEv(ptr noundef nonnull align 8 dereferenceable(56) %3) #18
  tail call void @_ZN7ZVerify13on_color_flipEv() #18
  %4 = getelementptr inbounds i8, ptr %0, i64 3216
  %5 = getelementptr inbounds i8, ptr %0, i64 8
  %6 = load i8, ptr %5, align 8
  %7 = icmp eq i8 %6, 1
  %8 = select i1 %7, i64 5, i64 2
  %9 = getelementptr inbounds [6 x ptr], ptr @__const._ZN11ZGeneration16log_phase_switchENS_5PhaseES0_.str, i64 0, i64 %8
  %10 = load ptr, ptr %9, align 8
  %11 = getelementptr inbounds i8, ptr %0, i64 3220
  %12 = load i32, ptr %11, align 4
  tail call void (ptr, ...) @_ZN6Events20log_zgc_phase_switchEPKcz(ptr noundef nonnull @.str.62, ptr noundef %10, i32 noundef %12)
  store i32 2, ptr %4, align 16
  %13 = getelementptr inbounds i8, ptr %0, i64 3224
  %14 = getelementptr inbounds i8, ptr %0, i64 16
  %15 = load ptr, ptr %14, align 16
  call void @_ZNK14ZPageAllocator5statsEP11ZGeneration(ptr dead_on_unwind nonnull writable sret(%class.ZPageAllocatorStats) align 8 %2, ptr noundef nonnull align 8 dereferenceable(609) %15, ptr noundef nonnull %0) #18
  call void @_ZN9ZStatHeap17at_relocate_startERK19ZPageAllocatorStats(ptr noundef nonnull align 8 dereferenceable(488) %13, ptr noundef nonnull align 8 dereferenceable(96) %2) #18
  %16 = getelementptr inbounds i8, ptr %0, i64 2944
  call void @_ZN9ZRelocate5startEv(ptr noundef nonnull align 8 dereferenceable(128) %16) #18
  ret void
}